target datalayout = "e-m:e-p270:32:32-p271:32:32-p272:64:64-i64:64-i128:128-f80:128-n8:16:32:64-S128"
target triple = "x86_64-pc-linux-gnu"

%"class.grpc_core::StaticStrideScheduler" = type { %"class.absl::lts_20240722::AnyInvocable", %"class.std::vector", [8 x i8] }
%"class.absl::lts_20240722::AnyInvocable" = type { %"class.absl::lts_20240722::internal_any_invocable::Impl" }
%"class.absl::lts_20240722::internal_any_invocable::Impl" = type { %"class.absl::lts_20240722::internal_any_invocable::CoreImpl" }
%"class.absl::lts_20240722::internal_any_invocable::CoreImpl" = type { %"union.absl::lts_20240722::internal_any_invocable::TypeErasedState", ptr, ptr }
%"union.absl::lts_20240722::internal_any_invocable::TypeErasedState" = type { %struct.anon }
%struct.anon = type { ptr, i64 }
%"class.std::vector" = type { %"struct.std::_Vector_base" }
%"struct.std::_Vector_base" = type { %"struct.std::_Vector_base<unsigned short, std::allocator<unsigned short>>::_Vector_impl" }
%"struct.std::_Vector_base<unsigned short, std::allocator<unsigned short>>::_Vector_impl" = type { %"struct.std::_Vector_base<unsigned short, std::allocator<unsigned short>>::_Vector_impl_data" }
%"struct.std::_Vector_base<unsigned short, std::allocator<unsigned short>>::_Vector_impl_data" = type { ptr, ptr, ptr }

; Function Attrs: mustprogress nounwind uwtable
define linkonce_odr noundef ptr @_ZN4absl12lts_2024072222internal_any_invocable4ImplIFjvEE14ExtractInvokerEv(ptr noundef nonnull align 16 dereferenceable(32) %0) #1 comdat align 2 {
  %2 = alloca ptr, align 8
  %3 = alloca ptr, align 8
  store ptr %0, ptr %2, align 8, !tbaa !57
  %4 = load ptr, ptr %2, align 8
  call void @llvm.lifetime.start.p0(i64 8, ptr %3) #14
  %5 = getelementptr inbounds nuw %"class.absl::lts_20240722::internal_any_invocable::CoreImpl", ptr %4, i32 0, i32 2
  %6 = load ptr, ptr %5, align 8, !tbaa !82
  store ptr %6, ptr %3, align 8, !tbaa !89
  %7 = load ptr, ptr %3, align 8, !tbaa !89
  call void @llvm.lifetime.end.p0(i64 8, ptr %3) #14
  ret ptr %7
}

; Function Attrs: mustprogress nounwind uwtable
define linkonce_odr noundef nonnull align 2 dereferenceable(2) ptr @_ZNKSt6vectorItSaItEEixEm(ptr noundef nonnull align 8 dereferenceable(24) %0, i64 noundef %1) #1 comdat align 2 {
  %3 = alloca ptr, align 8
  %4 = alloca i64, align 8
  store ptr %0, ptr %3, align 8, !tbaa !30
  store i64 %1, ptr %4, align 8, !tbaa !8
  %5 = load ptr, ptr %3, align 8
  %6 = getelementptr inbounds nuw %"struct.std::_Vector_base", ptr %5, i32 0, i32 0
  %7 = getelementptr inbounds nuw %"struct.std::_Vector_base<unsigned short, std::allocator<unsigned short>>::_Vector_impl_data", ptr %6, i32 0, i32 0
  %8 = load ptr, ptr %7, align 8, !tbaa !32
  %9 = load i64, ptr %4, align 8, !tbaa !8
  %10 = getelementptr inbounds nuw i16, ptr %8, i64 %9
  ret ptr %10
}

; Function Attrs: mustprogress nounwind uwtable
define linkonce_odr noundef i64 @_ZNKSt6vectorItSaItEE4sizeEv(ptr noundef nonnull align 8 dereferenceable(24) %0) #1 comdat align 2 {
  %2 = alloca ptr, align 8
  store ptr %0, ptr %2, align 8, !tbaa !30
  %3 = load ptr, ptr %2, align 8
  %4 = getelementptr inbounds nuw %"struct.std::_Vector_base", ptr %3, i32 0, i32 0
  %5 = getelementptr inbounds nuw %"struct.std::_Vector_base<unsigned short, std::allocator<unsigned short>>::_Vector_impl_data", ptr %4, i32 0, i32 1
  %6 = load ptr, ptr %5, align 8, !tbaa !34
  %7 = getelementptr inbounds nuw %"struct.std::_Vector_base", ptr %3, i32 0, i32 0
  %8 = getelementptr inbounds nuw %"struct.std::_Vector_base<unsigned short, std::allocator<unsigned short>>::_Vector_impl_data", ptr %7, i32 0, i32 0
  %9 = load ptr, ptr %8, align 8, !tbaa !32
  %10 = ptrtoint ptr %6 to i64
  %11 = ptrtoint ptr %9 to i64
  %12 = sub i64 %10, %11
  %13 = sdiv exact i64 %12, 2
  ret i64 %13
}

; Function Attrs: mustprogress uwtable
define linkonce_odr noundef i32 @_ZN4absl12lts_2024072222internal_any_invocable4ImplIFjvEEclEv(ptr noundef nonnull align 16 dereferenceable(32) %0) #0 comdat align 2 {
  %2 = alloca ptr, align 8
  store ptr %0, ptr %2, align 8, !tbaa !57
  %3 = load ptr, ptr %2, align 8
  %4 = call noundef ptr @_ZN4absl12lts_2024072222internal_any_invocable4ImplIFjvEE14ExtractInvokerEv(ptr noundef nonnull align 16 dereferenceable(32) %3)
  %5 = getelementptr inbounds nuw %"class.absl::lts_20240722::internal_any_invocable::CoreImpl", ptr %3, i32 0, i32 0
  %6 = call noundef i32 %4(ptr noundef %5)
  ret i32 %6
}

; Function Attrs: mustprogress uwtable
define noundef i64 @_ZNK9grpc_core21StaticStrideScheduler4PickEv(ptr noundef nonnull align 16 dereferenceable(64) %0) #0 align 2 {
  %2 = alloca i64, align 8
  %3 = alloca ptr, align 8
  %4 = alloca i32, align 4
  %5 = alloca i64, align 8
  %6 = alloca i64, align 8
  %7 = alloca i64, align 8
  %8 = alloca i16, align 2
  %9 = alloca i16, align 2
  %10 = alloca i32, align 4
  store ptr %0, ptr %3, align 8, !tbaa !48
  %11 = load ptr, ptr %3, align 8
  br label %12

12:                                               ; preds = %1, %46
  call void @llvm.lifetime.start.p0(i64 4, ptr %4) #14
  %13 = getelementptr inbounds nuw %"class.grpc_core::StaticStrideScheduler", ptr %11, i32 0, i32 0
  %14 = call noundef i32 @_ZN4absl12lts_2024072222internal_any_invocable4ImplIFjvEEclEv(ptr noundef nonnull align 16 dereferenceable(32) %13)
  store i32 %14, ptr %4, align 4, !tbaa !18
  call void @llvm.lifetime.start.p0(i64 8, ptr %5) #14
  %15 = load i32, ptr %4, align 4, !tbaa !18
  %16 = zext i32 %15 to i64
  %17 = getelementptr inbounds nuw %"class.grpc_core::StaticStrideScheduler", ptr %11, i32 0, i32 1
  %18 = call noundef i64 @_ZNKSt6vectorItSaItEE4sizeEv(ptr noundef nonnull align 8 dereferenceable(24) %17) #14
  %19 = urem i64 %16, %18
  store i64 %19, ptr %5, align 8, !tbaa !8
  call void @llvm.lifetime.start.p0(i64 8, ptr %6) #14
  %20 = load i32, ptr %4, align 4, !tbaa !18
  %21 = zext i32 %20 to i64
  %22 = getelementptr inbounds nuw %"class.grpc_core::StaticStrideScheduler", ptr %11, i32 0, i32 1
  %23 = call noundef i64 @_ZNKSt6vectorItSaItEE4sizeEv(ptr noundef nonnull align 8 dereferenceable(24) %22) #14
  %24 = udiv i64 %21, %23
  store i64 %24, ptr %6, align 8, !tbaa !8
  call void @llvm.lifetime.start.p0(i64 8, ptr %7) #14
  %25 = getelementptr inbounds nuw %"class.grpc_core::StaticStrideScheduler", ptr %11, i32 0, i32 1
  %26 = load i64, ptr %5, align 8, !tbaa !8
  %27 = call noundef nonnull align 2 dereferenceable(2) ptr @_ZNKSt6vectorItSaItEEixEm(ptr noundef nonnull align 8 dereferenceable(24) %25, i64 noundef %26) #14
  %28 = load i16, ptr %27, align 2, !tbaa !20
  %29 = zext i16 %28 to i64
  store i64 %29, ptr %7, align 8, !tbaa !8
  call void @llvm.lifetime.start.p0(i64 2, ptr %8) #14
  store i16 32767, ptr %8, align 2, !tbaa !20
  call void @llvm.lifetime.start.p0(i64 2, ptr %9) #14
  %30 = load i64, ptr %7, align 8, !tbaa !8
  %31 = load i64, ptr %6, align 8, !tbaa !8
  %32 = mul i64 %30, %31
  %33 = load i64, ptr %5, align 8, !tbaa !8
  %34 = mul i64 %33, 32767
  %35 = add i64 %32, %34
  %36 = urem i64 %35, 65535
  %37 = trunc i64 %36 to i16
  store i16 %37, ptr %9, align 2, !tbaa !20
  %38 = load i16, ptr %9, align 2, !tbaa !20
  %39 = zext i16 %38 to i64
  %40 = load i64, ptr %7, align 8, !tbaa !8
  %41 = sub i64 65535, %40
  %42 = icmp ult i64 %39, %41
  br i1 %42, label %43, label %44

43:                                               ; preds = %12
  store i32 2, ptr %10, align 4
  br label %46, !llvm.loop !56

44:                                               ; preds = %12
  %45 = load i64, ptr %5, align 8, !tbaa !8
  store i64 %45, ptr %2, align 8
  store i32 1, ptr %10, align 4
  br label %46

46:                                               ; preds = %44, %43
  call void @llvm.lifetime.end.p0(i64 2, ptr %9) #14
  call void @llvm.lifetime.end.p0(i64 2, ptr %8) #14
  call void @llvm.lifetime.end.p0(i64 8, ptr %7) #14
  call void @llvm.lifetime.end.p0(i64 8, ptr %6) #14
  call void @llvm.lifetime.end.p0(i64 8, ptr %5) #14
  call void @llvm.lifetime.end.p0(i64 4, ptr %4) #14
  %47 = load i32, ptr %10, align 4
  switch i32 %47, label %50 [
    i32 2, label %12
    i32 1, label %48
  ]

48:                                               ; preds = %46
  %49 = load i64, ptr %2, align 8
  ret i64 %49

50:                                               ; preds = %46
  unreachable
}