; Function Attrs: mustprogress uwtable
define noundef range(i64 0, 4294967296) i64 @_ZNK9grpc_core21StaticStrideScheduler4PickEv(ptr noundef nonnull align 16 dereferenceable(64) %0) local_unnamed_addr #0 align 2 {
  %2 = getelementptr inbounds nuw i8, ptr %0, i64 24
  %3 = getelementptr inbounds nuw i8, ptr %0, i64 32
  %4 = getelementptr inbounds nuw i8, ptr %0, i64 40
  br label %5

5:                                                ; preds = %5, %1
  %6 = load ptr, ptr %2, align 8, !tbaa !25
  %7 = tail call noundef i32 %6(ptr noundef nonnull align 16 dereferenceable(32) %0)
  %8 = zext i32 %7 to i64
  %9 = load ptr, ptr %4, align 8, !tbaa !21
  %10 = load ptr, ptr %3, align 16, !tbaa !17
  %11 = ptrtoint ptr %9 to i64
  %12 = ptrtoint ptr %10 to i64
  %13 = sub i64 %11, %12
  %14 = ashr exact i64 %13, 1
  %15 = urem i64 %8, %14
  %16 = udiv i64 %8, %14
  %17 = getelementptr inbounds nuw i16, ptr %10, i64 %15
  %18 = load i16, ptr %17, align 2, !tbaa !13
  %19 = zext i16 %18 to i64
  %20 = mul nuw nsw i64 %16, %19
  %21 = mul nuw nsw i64 %15, 32767
  %22 = add nuw nsw i64 %20, %21
  %23 = urem i64 %22, 65535
  %24 = xor i64 %19, 65535
  %25 = icmp samesign ult i64 %23, %24
  br i1 %25, label %5, label %26

26:                                               ; preds = %5
  ret i64 %15
}